target datalayout = "e-m:e-p270:32:32-p271:32:32-p272:64:64-i64:64-i128:128-f80:128-n8:16:32:64-S128"
target triple = "x86_64-pc-linux-gnu"

%"class.std::__cxx11::basic_string" = type { %"struct.std::__cxx11::basic_string<char>::_Alloc_hider", i64, %union.anon }
%"struct.std::__cxx11::basic_string<char>::_Alloc_hider" = type { ptr }
%union.anon = type { i64, [8 x i8] }
%struct.rocksdb_options_t = type { %"struct.rocksdb::Options" }
%"struct.rocksdb::Options" = type { %"struct.rocksdb::DBOptions.base", %"struct.rocksdb::ColumnFamilyOptions" }
%"struct.rocksdb::DBOptions.base" = type <{ i8, i8, i8, i8, i8, i8, i8, i8, i8, [7 x i8], ptr, %"class.std::shared_ptr", %"class.std::shared_ptr.2", %"class.std::shared_ptr.5", i8, [3 x i8], i32, i32, [4 x i8], i64, %"class.std::shared_ptr.8", i8, [7 x i8], %"class.std::vector", %"class.std::__cxx11::basic_string", %"class.std::__cxx11::basic_string", i64, i32, i32, i32, i32, i64, i64, i64, i64, i64, i32, [4 x i8], i64, i64, i64, i8, i8, i8, i8, i8, i8, [2 x i8], i32, i32, i8, [7 x i8], i64, i8, [7 x i8], i64, %"class.std::shared_ptr.14", i64, i64, i8, [7 x i8], i64, i64, i8, [7 x i8], %"class.std::vector.17", i8, [7 x i8], i64, i8, i8, i8, i8, [4 x i8], i64, i64, i64, i8, i8, i8, i8, [4 x i8], %"class.std::shared_ptr.22", ptr, i8, i8, i8, i8, i8, i8, i8, i8, i8, i8, i8, i8, i8, i8, [2 x i8], i64, %"class.std::shared_ptr.25", i8, [3 x i8], i32, i64, i8, [7 x i8], %"class.std::__cxx11::basic_string", %"class.rocksdb::SmallEnumSet", %"class.std::shared_ptr.28", i8, i8, [6 x i8], %"class.std::__cxx11::basic_string", i64, i64, i64, i8, i8 }>
%"class.std::shared_ptr" = type { %"class.std::__shared_ptr" }
%"class.std::__shared_ptr" = type { ptr, %"class.std::__shared_count" }
%"class.std::__shared_count" = type { ptr }
%"class.std::shared_ptr.2" = type { %"class.std::__shared_ptr.3" }
%"class.std::__shared_ptr.3" = type { ptr, %"class.std::__shared_count" }
%"class.std::shared_ptr.5" = type { %"class.std::__shared_ptr.6" }
%"class.std::__shared_ptr.6" = type { ptr, %"class.std::__shared_count" }
%"class.std::shared_ptr.8" = type { %"class.std::__shared_ptr.9" }
%"class.std::__shared_ptr.9" = type { ptr, %"class.std::__shared_count" }
%"class.std::vector" = type { %"struct.std::_Vector_base" }
%"struct.std::_Vector_base" = type { %"struct.std::_Vector_base<rocksdb::DbPath, std::allocator<rocksdb::DbPath>>::_Vector_impl" }
%"struct.std::_Vector_base<rocksdb::DbPath, std::allocator<rocksdb::DbPath>>::_Vector_impl" = type { %"struct.std::_Vector_base<rocksdb::DbPath, std::allocator<rocksdb::DbPath>>::_Vector_impl_data" }
%"struct.std::_Vector_base<rocksdb::DbPath, std::allocator<rocksdb::DbPath>>::_Vector_impl_data" = type { ptr, ptr, ptr }
%"class.std::shared_ptr.14" = type { %"class.std::__shared_ptr.15" }
%"class.std::__shared_ptr.15" = type { ptr, %"class.std::__shared_count" }
%"class.std::vector.17" = type { %"struct.std::_Vector_base.18" }
%"struct.std::_Vector_base.18" = type { %"struct.std::_Vector_base<std::shared_ptr<rocksdb::EventListener>, std::allocator<std::shared_ptr<rocksdb::EventListener>>>::_Vector_impl" }
%"struct.std::_Vector_base<std::shared_ptr<rocksdb::EventListener>, std::allocator<std::shared_ptr<rocksdb::EventListener>>>::_Vector_impl" = type { %"struct.std::_Vector_base<std::shared_ptr<rocksdb::EventListener>, std::allocator<std::shared_ptr<rocksdb::EventListener>>>::_Vector_impl_data" }
%"struct.std::_Vector_base<std::shared_ptr<rocksdb::EventListener>, std::allocator<std::shared_ptr<rocksdb::EventListener>>>::_Vector_impl_data" = type { ptr, ptr, ptr }
%"class.std::shared_ptr.22" = type { %"class.std::__shared_ptr.23" }
%"class.std::__shared_ptr.23" = type { ptr, %"class.std::__shared_count" }
%"class.std::shared_ptr.25" = type { %"class.std::__shared_ptr.26" }
%"class.std::__shared_ptr.26" = type { ptr, %"class.std::__shared_count" }
%"class.rocksdb::SmallEnumSet" = type { i64 }
%"class.std::shared_ptr.28" = type { %"class.std::__shared_ptr.29" }
%"class.std::__shared_ptr.29" = type { ptr, %"class.std::__shared_count" }
%"struct.rocksdb::ColumnFamilyOptions" = type { %"struct.rocksdb::AdvancedColumnFamilyOptions.base", ptr, %"class.std::shared_ptr.57", ptr, %"class.std::shared_ptr.60", i64, i8, i8, [6 x i8], %"struct.rocksdb::CompressionOptions", %"struct.rocksdb::CompressionOptions", i32, %"class.std::shared_ptr.31", i64, i64, i8, %"class.std::shared_ptr.63", %"class.std::vector", %"class.std::shared_ptr.66", %"class.std::shared_ptr.69", i32, i32 }
%"struct.rocksdb::AdvancedColumnFamilyOptions.base" = type <{ i32, i32, i32, [4 x i8], i64, i8, [7 x i8], i64, double, ptr, double, i8, [7 x i8], i64, %"class.std::shared_ptr.31", i32, [4 x i8], i64, %"class.std::vector.34", i32, i32, i32, [4 x i8], i64, i32, i8, [3 x i8], double, %"class.std::vector.39", i64, i64, i64, i8, i8, [2 x i8], %"class.rocksdb::CompactionOptionsUniversal", [4 x i8], %"struct.rocksdb::CompactionOptionsFIFO", i64, %"class.std::shared_ptr.49", %"class.std::vector.52", i64, i8, i8, i8, i8, i8, [3 x i8], i64, i64, i64, i8, i8, i8, [5 x i8], i64, i64, i8, [7 x i8], i64, i64, i8, i8, [6 x i8], double, double, i64, i32, [4 x i8], %"class.std::shared_ptr.22", i8, [3 x i8], i32, i8, i8, [2 x i8], i32, i8 }>
%"class.std::vector.34" = type { %"struct.std::_Vector_base.35" }
%"struct.std::_Vector_base.35" = type { %"struct.std::_Vector_base<rocksdb::CompressionType, std::allocator<rocksdb::CompressionType>>::_Vector_impl" }
%"struct.std::_Vector_base<rocksdb::CompressionType, std::allocator<rocksdb::CompressionType>>::_Vector_impl" = type { %"struct.std::_Vector_base<rocksdb::CompressionType, std::allocator<rocksdb::CompressionType>>::_Vector_impl_data" }
%"struct.std::_Vector_base<rocksdb::CompressionType, std::allocator<rocksdb::CompressionType>>::_Vector_impl_data" = type { ptr, ptr, ptr }
%"class.std::vector.39" = type { %"struct.std::_Vector_base.40" }
%"struct.std::_Vector_base.40" = type { %"struct.std::_Vector_base<int, std::allocator<int>>::_Vector_impl" }
%"struct.std::_Vector_base<int, std::allocator<int>>::_Vector_impl" = type { %"struct.std::_Vector_base<int, std::allocator<int>>::_Vector_impl_data" }
%"struct.std::_Vector_base<int, std::allocator<int>>::_Vector_impl_data" = type { ptr, ptr, ptr }
%"class.rocksdb::CompactionOptionsUniversal" = type <{ i32, i32, i32, i32, i32, i32, i32, i8, i8, [2 x i8] }>
%"struct.rocksdb::CompactionOptionsFIFO" = type { i64, i8, i64, %"class.std::vector.44" }
%"class.std::vector.44" = type { %"struct.std::_Vector_base.45" }
%"struct.std::_Vector_base.45" = type { %"struct.std::_Vector_base<rocksdb::FileTemperatureAge, std::allocator<rocksdb::FileTemperatureAge>>::_Vector_impl" }
%"struct.std::_Vector_base<rocksdb::FileTemperatureAge, std::allocator<rocksdb::FileTemperatureAge>>::_Vector_impl" = type { %"struct.std::_Vector_base<rocksdb::FileTemperatureAge, std::allocator<rocksdb::FileTemperatureAge>>::_Vector_impl_data" }
%"struct.std::_Vector_base<rocksdb::FileTemperatureAge, std::allocator<rocksdb::FileTemperatureAge>>::_Vector_impl_data" = type { ptr, ptr, ptr }
%"class.std::shared_ptr.49" = type { %"class.std::__shared_ptr.50" }
%"class.std::__shared_ptr.50" = type { ptr, %"class.std::__shared_count" }
%"class.std::vector.52" = type { %"struct.std::_Vector_base.53" }
%"struct.std::_Vector_base.53" = type { %"struct.std::_Vector_base<std::shared_ptr<rocksdb::TablePropertiesCollectorFactory>, std::allocator<std::shared_ptr<rocksdb::TablePropertiesCollectorFactory>>>::_Vector_impl" }
%"struct.std::_Vector_base<std::shared_ptr<rocksdb::TablePropertiesCollectorFactory>, std::allocator<std::shared_ptr<rocksdb::TablePropertiesCollectorFactory>>>::_Vector_impl" = type { %"struct.std::_Vector_base<std::shared_ptr<rocksdb::TablePropertiesCollectorFactory>, std::allocator<std::shared_ptr<rocksdb::TablePropertiesCollectorFactory>>>::_Vector_impl_data" }
%"struct.std::_Vector_base<std::shared_ptr<rocksdb::TablePropertiesCollectorFactory>, std::allocator<std::shared_ptr<rocksdb::TablePropertiesCollectorFactory>>>::_Vector_impl_data" = type { ptr, ptr, ptr }
%"class.std::shared_ptr.57" = type { %"class.std::__shared_ptr.58" }
%"class.std::__shared_ptr.58" = type { ptr, %"class.std::__shared_count" }
%"class.std::shared_ptr.60" = type { %"class.std::__shared_ptr.61" }
%"class.std::__shared_ptr.61" = type { ptr, %"class.std::__shared_count" }
%"struct.rocksdb::CompressionOptions" = type <{ i32, i32, i32, i32, i32, i32, i8, [7 x i8], i64, i8, [3 x i8], i32, i8, [7 x i8] }>
%"class.std::shared_ptr.31" = type { %"class.std::__shared_ptr.32" }
%"class.std::__shared_ptr.32" = type { ptr, %"class.std::__shared_count" }
%"class.std::shared_ptr.63" = type { %"class.std::__shared_ptr.64" }
%"class.std::__shared_ptr.64" = type { ptr, %"class.std::__shared_count" }
%"class.std::shared_ptr.66" = type { %"class.std::__shared_ptr.67" }
%"class.std::__shared_ptr.67" = type { ptr, %"class.std::__shared_count" }
%"class.std::shared_ptr.69" = type { %"class.std::__shared_ptr.70" }
%"class.std::__shared_ptr.70" = type { ptr, %"class.std::__shared_count" }
%"struct.rocksdb::PlainTableOptions" = type <{ i32, i32, double, i64, i64, i8, i8, i8, [5 x i8] }>

; Function Attrs: inlinehint mustprogress nounwind uwtable
define linkonce_odr void @_ZN7rocksdb17PlainTableOptionsC2Ev(ptr noundef nonnull align 8 dereferenceable(35) %0) unnamed_addr #5 comdat align 2 {
  %2 = alloca ptr, align 8
  store ptr %0, ptr %2, align 8, !tbaa !795
  %3 = load ptr, ptr %2, align 8
  %4 = getelementptr inbounds nuw %"struct.rocksdb::PlainTableOptions", ptr %3, i32 0, i32 0
  store i32 0, ptr %4, align 8, !tbaa !785
  %5 = getelementptr inbounds nuw %"struct.rocksdb::PlainTableOptions", ptr %3, i32 0, i32 1
  store i32 10, ptr %5, align 4, !tbaa !788
  %6 = getelementptr inbounds nuw %"struct.rocksdb::PlainTableOptions", ptr %3, i32 0, i32 2
  store double 7.500000e-01, ptr %6, align 8, !tbaa !789
  %7 = getelementptr inbounds nuw %"struct.rocksdb::PlainTableOptions", ptr %3, i32 0, i32 3
  store i64 16, ptr %7, align 8, !tbaa !790
  %8 = getelementptr inbounds nuw %"struct.rocksdb::PlainTableOptions", ptr %3, i32 0, i32 4
  store i64 0, ptr %8, align 8, !tbaa !791
  %9 = getelementptr inbounds nuw %"struct.rocksdb::PlainTableOptions", ptr %3, i32 0, i32 5
  store i8 0, ptr %9, align 8, !tbaa !792
  %10 = getelementptr inbounds nuw %"struct.rocksdb::PlainTableOptions", ptr %3, i32 0, i32 6
  store i8 0, ptr %10, align 1, !tbaa !793
  %11 = getelementptr inbounds nuw %"struct.rocksdb::PlainTableOptions", ptr %3, i32 0, i32 7
  store i8 0, ptr %11, align 2, !tbaa !794
  ret void
}

; Function Attrs: mustprogress uwtable
define void @rocksdb_options_set_plain_table_factory(ptr noundef %0, i32 noundef %1, i32 noundef %2, double noundef %3, i64 noundef %4, i64 noundef %5, i8 noundef signext %6, i8 noundef zeroext %7, i8 noundef zeroext %8) #0 {
  %10 = alloca ptr, align 8
  %11 = alloca i32, align 4
  %12 = alloca i32, align 4
  %13 = alloca double, align 8
  %14 = alloca i64, align 8
  %15 = alloca i64, align 8
  %16 = alloca i8, align 1
  %17 = alloca i8, align 1
  %18 = alloca i8, align 1
  %19 = alloca %"struct.rocksdb::PlainTableOptions", align 8
  %20 = alloca ptr, align 8
  store ptr %0, ptr %10, align 8, !tbaa !4
  store i32 %1, ptr %11, align 4, !tbaa !30
  store i32 %2, ptr %12, align 4, !tbaa !30
  store double %3, ptr %13, align 8, !tbaa !540
  store i64 %4, ptr %14, align 8, !tbaa !103
  store i64 %5, ptr %15, align 8, !tbaa !103
  store i8 %6, ptr %16, align 1, !tbaa !34
  store i8 %7, ptr %17, align 1, !tbaa !34
  store i8 %8, ptr %18, align 1, !tbaa !34
  call void @llvm.lifetime.start.p0(i64 40, ptr %19) #24
  call void @_ZN7rocksdb17PlainTableOptionsC2Ev(ptr noundef nonnull align 8 dereferenceable(35) %19) #24
  %21 = load i32, ptr %11, align 4, !tbaa !30
  %22 = getelementptr inbounds nuw %"struct.rocksdb::PlainTableOptions", ptr %19, i32 0, i32 0
  store i32 %21, ptr %22, align 8, !tbaa !785
  %23 = load i32, ptr %12, align 4, !tbaa !30
  %24 = getelementptr inbounds nuw %"struct.rocksdb::PlainTableOptions", ptr %19, i32 0, i32 1
  store i32 %23, ptr %24, align 4, !tbaa !788
  %25 = load double, ptr %13, align 8, !tbaa !540
  %26 = getelementptr inbounds nuw %"struct.rocksdb::PlainTableOptions", ptr %19, i32 0, i32 2
  store double %25, ptr %26, align 8, !tbaa !789
  %27 = load i64, ptr %14, align 8, !tbaa !103
  %28 = getelementptr inbounds nuw %"struct.rocksdb::PlainTableOptions", ptr %19, i32 0, i32 3
  store i64 %27, ptr %28, align 8, !tbaa !790
  %29 = load i64, ptr %15, align 8, !tbaa !103
  %30 = getelementptr inbounds nuw %"struct.rocksdb::PlainTableOptions", ptr %19, i32 0, i32 4
  store i64 %29, ptr %30, align 8, !tbaa !791
  %31 = load i8, ptr %16, align 1, !tbaa !34
  %32 = getelementptr inbounds nuw %"struct.rocksdb::PlainTableOptions", ptr %19, i32 0, i32 5
  store i8 %31, ptr %32, align 8, !tbaa !792
  %33 = load i8, ptr %17, align 1, !tbaa !34
  %34 = icmp ne i8 %33, 0
  %35 = getelementptr inbounds nuw %"struct.rocksdb::PlainTableOptions", ptr %19, i32 0, i32 6
  %36 = zext i1 %34 to i8
  store i8 %36, ptr %35, align 1, !tbaa !793
  %37 = load i8, ptr %18, align 1, !tbaa !34
  %38 = icmp ne i8 %37, 0
  %39 = getelementptr inbounds nuw %"struct.rocksdb::PlainTableOptions", ptr %19, i32 0, i32 7
  %40 = zext i1 %38 to i8
  store i8 %40, ptr %39, align 2, !tbaa !794
  call void @llvm.lifetime.start.p0(i64 8, ptr %20) #24
  %41 = call noundef ptr @_ZN7rocksdb20NewPlainTableFactoryERKNS_17PlainTableOptionsE(ptr noundef nonnull align 8 dereferenceable(35) %19)
  store ptr %41, ptr %20, align 8, !tbaa !548
  %42 = load ptr, ptr %10, align 8, !tbaa !4
  %43 = getelementptr inbounds nuw %struct.rocksdb_options_t, ptr %42, i32 0, i32 0
  %44 = getelementptr inbounds i8, ptr %43, i64 712
  %45 = getelementptr inbounds nuw %"struct.rocksdb::ColumnFamilyOptions", ptr %44, i32 0, i32 16
  %46 = load ptr, ptr %20, align 8, !tbaa !548
  call void @_ZNSt12__shared_ptrIN7rocksdb12TableFactoryELN9__gnu_cxx12_Lock_policyE2EE5resetIS1_EENSt9enable_ifIXsr21__sp_is_constructibleIS1_T_EE5valueEvE4typeEPS7_(ptr noundef nonnull align 8 dereferenceable(16) %45, ptr noundef %46)
  call void @llvm.lifetime.end.p0(i64 8, ptr %20) #24
  call void @llvm.lifetime.end.p0(i64 40, ptr %19) #24
  ret void
}