; Function Attrs: mustprogress uwtable
define void @rocksdb_options_set_plain_table_factory(ptr noundef %0, i32 noundef %1, i32 noundef %2, double noundef %3, i64 noundef %4, i64 noundef %5, i8 noundef signext %6, i8 noundef zeroext %7, i8 noundef zeroext %8) local_unnamed_addr #0 {
  %10 = alloca %"struct.rocksdb::PlainTableOptions", align 8
  call void @llvm.lifetime.start.p0(i64 40, ptr nonnull %10) #43
  %11 = getelementptr inbounds nuw i8, ptr %10, i64 4
  %12 = getelementptr inbounds nuw i8, ptr %10, i64 8
  %13 = getelementptr inbounds nuw i8, ptr %10, i64 16
  %14 = getelementptr inbounds nuw i8, ptr %10, i64 24
  store i32 %1, ptr %10, align 8, !tbaa !766
  store i32 %2, ptr %11, align 4, !tbaa !769
  store double %3, ptr %12, align 8, !tbaa !770
  store i64 %4, ptr %13, align 8, !tbaa !771
  store i64 %5, ptr %14, align 8, !tbaa !772
  %15 = getelementptr inbounds nuw i8, ptr %10, i64 32
  store i8 %6, ptr %15, align 8, !tbaa !773
  %16 = icmp ne i8 %7, 0
  %17 = getelementptr inbounds nuw i8, ptr %10, i64 33
  %18 = zext i1 %16 to i8
  store i8 %18, ptr %17, align 1, !tbaa !774
  %19 = icmp ne i8 %8, 0
  %20 = getelementptr inbounds nuw i8, ptr %10, i64 34
  %21 = zext i1 %19 to i8
  store i8 %21, ptr %20, align 2, !tbaa !775
  %22 = call noundef ptr @_ZN7rocksdb20NewPlainTableFactoryERKNS_17PlainTableOptionsE(ptr noundef nonnull align 8 dereferenceable(35) %10)
  %23 = getelementptr inbounds nuw i8, ptr %0, i64 1464
  call void @_ZNSt12__shared_ptrIN7rocksdb12TableFactoryELN9__gnu_cxx12_Lock_policyE2EE5resetIS1_EENSt9enable_ifIXsr21__sp_is_constructibleIS1_T_EE5valueEvE4typeEPS7_(ptr noundef nonnull align 8 dereferenceable(16) %23, ptr noundef %22)
  call void @llvm.lifetime.end.p0(i64 40, ptr nonnull %10) #43
  ret void
}